target datalayout = "e-m:e-p270:32:32-p271:32:32-p272:64:64-i64:64-i128:128-f80:128-n8:16:32:64-S128"
target triple = "x86_64-pc-linux-gnu"

; Function Attrs: nounwind null_pointer_is_valid sspstrong uwtable
define internal i32 @logcat_text_process_dump_can_write_encap(i32 noundef %0) #6 {
  %2 = alloca i32, align 4
  %3 = alloca i32, align 4
  store i32 %0, ptr %3, align 4
  %4 = load i32, ptr %3, align 4
  %5 = icmp eq i32 %4, -1
  br i1 %5, label %6, label %7

6:                                                ; preds = %1
  store i32 -9, ptr %2, align 4
  br label %11

7:                                                ; preds = %1
  %8 = load i32, ptr %3, align 4
  switch i32 %8, label %10 [
    i32 163, label %9
    i32 165, label %9
    i32 155, label %9
  ]

9:                                                ; preds = %7, %7, %7
  store i32 0, ptr %2, align 4
  br label %11

10:                                               ; preds = %7
  store i32 -8, ptr %2, align 4
  br label %11

11:                                               ; preds = %10, %9, %6
  %12 = load i32, ptr %2, align 4
  ret i32 %12
}